target datalayout = "e-m:e-p270:32:32-p271:32:32-p272:64:64-i64:64-i128:128-f80:128-n8:16:32:64-S128"
target triple = "x86_64-pc-linux-gnu"

; Function Attrs: null_pointer_is_valid sspstrong uwtable
define internal ptr @decrypt_secure_wrapper(ptr noundef %0, ptr noundef %1, i32 noundef %2, i32 noundef %3) #0 {
  %5 = alloca ptr, align 8
  %6 = alloca ptr, align 8
  %7 = alloca ptr, align 8
  %8 = alloca i32, align 4
  %9 = alloca i32, align 4
  %10 = alloca i8, align 1
  %11 = alloca i32, align 4
  %12 = alloca ptr, align 8
  %13 = alloca ptr, align 8
  %14 = alloca [16 x i8], align 16
  %15 = alloca i32, align 4
  store ptr %0, ptr %6, align 8
  store ptr %1, ptr %7, align 8
  store i32 %2, ptr %8, align 4
  store i32 %3, ptr %9, align 4
  call void @llvm.lifetime.start.p0(i64 1, ptr %10) #9
  %16 = load ptr, ptr %7, align 8
  %17 = load i8, ptr %16, align 1
  store i8 %17, ptr %10, align 1
  call void @llvm.lifetime.start.p0(i64 4, ptr %11) #9
  %18 = load i8, ptr %10, align 1
  %19 = zext i8 %18 to i32
  %20 = add i32 %19, 2
  store i32 %20, ptr %11, align 4
  %21 = load i32, ptr %11, align 4
  %22 = load i32, ptr %8, align 4
  %23 = icmp sgt i32 %21, %22
  br i1 %23, label %24, label %26

24:                                               ; preds = %4
  %25 = load i32, ptr %8, align 4
  store i32 %25, ptr %11, align 4
  br label %26

26:                                               ; preds = %24, %4
  %27 = load i32, ptr %8, align 4
  %28 = load i8, ptr %10, align 1
  %29 = zext i8 %28 to i32
  %30 = add i32 %29, 16
  %31 = icmp sge i32 %27, %30
  br i1 %31, label %32, label %73

32:                                               ; preds = %26
  %33 = load i32, ptr %9, align 4
  %34 = icmp sge i32 %33, 16
  br i1 %34, label %35, label %73

35:                                               ; preds = %32
  call void @llvm.lifetime.start.p0(i64 8, ptr %12) #9
  %36 = load ptr, ptr %7, align 8
  %37 = load i32, ptr %11, align 4
  %38 = sext i32 %37 to i64
  %39 = getelementptr i8, ptr %36, i64 %38
  store ptr %39, ptr %12, align 8
  call void @llvm.lifetime.start.p0(i64 8, ptr %13) #9
  %40 = load ptr, ptr %6, align 8
  %41 = load ptr, ptr %7, align 8
  %42 = load i32, ptr %8, align 4
  %43 = sext i32 %42 to i64
  %44 = getelementptr i8, ptr %41, i64 %43
  %45 = load i32, ptr %9, align 4
  %46 = load ptr, ptr %12, align 8
  %47 = call ptr @knxip_ccm_decrypt(ptr noundef null, ptr noundef %40, ptr noundef %44, i32 noundef %45, ptr noundef %46, i8 noundef zeroext 14)
  store ptr %47, ptr %13, align 8
  %48 = load ptr, ptr %13, align 8
  %49 = icmp ne ptr %48, null
  br i1 %49, label %50, label %71

50:                                               ; preds = %35
  call void @llvm.lifetime.start.p0(i64 16, ptr %14) #9
  %51 = load i32, ptr %9, align 4
  %52 = sub i32 %51, 16
  store i32 %52, ptr %9, align 4
  %53 = getelementptr inbounds [16 x i8], ptr %14, i64 0, i64 0
  %54 = load ptr, ptr %6, align 8
  %55 = load ptr, ptr %7, align 8
  %56 = load i32, ptr %11, align 4
  %57 = load ptr, ptr %13, align 8
  %58 = load i32, ptr %9, align 4
  %59 = load ptr, ptr %12, align 8
  call void @knxip_ccm_calc_cbc_mac(ptr noundef %53, ptr noundef %54, ptr noundef %55, i32 noundef %56, ptr noundef %57, i32 noundef %58, ptr noundef %59, i8 noundef zeroext 14)
  %60 = load ptr, ptr %13, align 8
  %61 = load i32, ptr %9, align 4
  %62 = sext i32 %61 to i64
  %63 = getelementptr i8, ptr %60, i64 %62
  %64 = getelementptr inbounds [16 x i8], ptr %14, i64 0, i64 0
  %65 = call i32 @memcmp(ptr noundef %63, ptr noundef %64, i64 noundef 16) #10
  %66 = icmp ne i32 %65, 0
  br i1 %66, label %67, label %70

67:                                               ; preds = %50
  %68 = call ptr @wmem_packet_scope()
  %69 = load ptr, ptr %13, align 8
  call void @wmem_free(ptr noundef %68, ptr noundef %69)
  store ptr null, ptr %13, align 8
  br label %70

70:                                               ; preds = %67, %50
  call void @llvm.lifetime.end.p0(i64 16, ptr %14) #9
  br label %71

71:                                               ; preds = %70, %35
  %72 = load ptr, ptr %13, align 8
  store ptr %72, ptr %5, align 8
  store i32 1, ptr %15, align 4
  call void @llvm.lifetime.end.p0(i64 8, ptr %13) #9
  call void @llvm.lifetime.end.p0(i64 8, ptr %12) #9
  br label %74

73:                                               ; preds = %32, %26
  store ptr null, ptr %5, align 8
  store i32 1, ptr %15, align 4
  br label %74

74:                                               ; preds = %73, %71
  call void @llvm.lifetime.end.p0(i64 4, ptr %11) #9
  call void @llvm.lifetime.end.p0(i64 1, ptr %10) #9
  %75 = load ptr, ptr %5, align 8
  ret ptr %75
}