; Function Attrs: null_pointer_is_valid sspstrong uwtable
define internal fastcc ptr @decrypt_secure_wrapper(ptr noundef %0, ptr noundef %1, i32 noundef range(i32 16, 272) %2, i32 noundef range(i32 16, 2147483632) %3) unnamed_addr #0 {
  %5 = alloca [16 x i8], align 16
  %6 = load i8, ptr %1, align 1
  %7 = zext i8 %6 to i32
  %8 = add nuw nsw i32 %7, 2
  %spec.select = tail call i32 @llvm.umin.i32(i32 %8, i32 %2)
  %9 = add nuw nsw i32 %7, 16
  %.not = icmp samesign ult i32 %2, %9
  br i1 %.not, label %23, label %10

10:                                               ; preds = %4
  %11 = zext nneg i32 %spec.select to i64
  %12 = getelementptr i8, ptr %1, i64 %11
  %13 = zext nneg i32 %2 to i64
  %14 = getelementptr i8, ptr %1, i64 %13
  %15 = tail call ptr @knxip_ccm_decrypt(ptr noundef null, ptr noundef %0, ptr noundef %14, i32 noundef %3, ptr noundef %12, i8 noundef zeroext 14)
  %.not36 = icmp eq ptr %15, null
  br i1 %.not36, label %23, label %16

16:                                               ; preds = %10
  call void @llvm.lifetime.start.p0(i64 16, ptr nonnull %5) #11
  %17 = add nsw i32 %3, -16
  call void @knxip_ccm_calc_cbc_mac(ptr noundef nonnull %5, ptr noundef %0, ptr noundef %1, i32 noundef %spec.select, ptr noundef nonnull %15, i32 noundef %17, ptr noundef %12, i8 noundef zeroext 14)
  %18 = zext nneg i32 %17 to i64
  %19 = getelementptr i8, ptr %15, i64 %18
  %bcmp = call i32 @bcmp(ptr noundef dereferenceable(16) %19, ptr noundef nonnull dereferenceable(16) %5, i64 16)
  %.not37 = icmp eq i32 %bcmp, 0
  br i1 %.not37, label %22, label %20

20:                                               ; preds = %16
  %21 = call ptr @wmem_packet_scope()
  call void @wmem_free(ptr noundef %21, ptr noundef nonnull %15)
  br label %22

22:                                               ; preds = %20, %16
  %.1 = phi ptr [ null, %20 ], [ %15, %16 ]
  call void @llvm.lifetime.end.p0(i64 16, ptr nonnull %5) #11
  br label %23

23:                                               ; preds = %4, %10, %22
  %.028 = phi ptr [ %.1, %22 ], [ null, %10 ], [ null, %4 ]
  ret ptr %.028
}